; Function Attrs: mustprogress nofree norecurse nosync nounwind willreturn memory(argmem: read) uwtable
define noundef range(i32 -1, 2) i32 @_ZN32pxrInternal_v0_24__pxrReserved__21pxr_double_conversion6Bignum7CompareERKS1_S3_(ptr nocapture noundef nonnull readonly align 4 dereferenceable(516) %0, ptr nocapture noundef nonnull readonly align 4 dereferenceable(516) %1) local_unnamed_addr #6 align 2 {
  %3 = load i16, ptr %0, align 4
  %4 = sext i16 %3 to i32
  %5 = getelementptr inbounds nuw i8, ptr %0, i64 2
  %6 = load i16, ptr %5, align 2
  %7 = sext i16 %6 to i32
  %8 = add nsw i32 %7, %4
  %9 = load i16, ptr %1, align 4
  %10 = sext i16 %9 to i32
  %11 = getelementptr inbounds nuw i8, ptr %1, i64 2
  %12 = load i16, ptr %11, align 2
  %13 = sext i16 %12 to i32
  %14 = add nsw i32 %13, %10
  %15 = icmp slt i32 %8, %14
  br i1 %15, label %.loopexit, label %16

16:                                               ; preds = %2
  %17 = icmp sgt i32 %8, %14
  br i1 %17, label %.loopexit, label %.preheader

.preheader:                                       ; preds = %16
  %18 = tail call i16 @llvm.smin.i16(i16 %12, i16 %6)
  %19 = getelementptr inbounds nuw i8, ptr %0, i64 4
  %20 = getelementptr inbounds nuw i8, ptr %1, i64 4
  %21 = sext i16 %3 to i64
  %22 = sext i16 %6 to i64
  %23 = add nsw i64 %21, %22
  %24 = sext i16 %6 to i64
  %25 = sext i16 %12 to i64
  %26 = sext i16 %18 to i64
  %27 = sext i32 %8 to i64
  %28 = sext i32 %14 to i64
  br label %29

29:                                               ; preds = %.preheader, %42
  %indvars.iv = phi i64 [ %23, %.preheader ], [ %indvars.iv.next, %42 ]
  %indvars.iv.next = add nsw i64 %indvars.iv, -1
  %.not.not = icmp sgt i64 %indvars.iv, %26
  br i1 %.not.not, label %30, label %.loopexit

30:                                               ; preds = %29
  %.not.i = icmp sgt i64 %indvars.iv, %27
  %31 = icmp sle i64 %indvars.iv, %24
  %or.cond.i = or i1 %31, %.not.i
  br i1 %or.cond.i, label %_ZNK32pxrInternal_v0_24__pxrReserved__21pxr_double_conversion6Bignum11BigitOrZeroEi.exit, label %32

32:                                               ; preds = %30
  %33 = sub nsw i64 %indvars.iv.next, %24
  %34 = getelementptr inbounds [128 x i32], ptr %19, i64 0, i64 %33
  %35 = load i32, ptr %34, align 4
  br label %_ZNK32pxrInternal_v0_24__pxrReserved__21pxr_double_conversion6Bignum11BigitOrZeroEi.exit

_ZNK32pxrInternal_v0_24__pxrReserved__21pxr_double_conversion6Bignum11BigitOrZeroEi.exit: ; preds = %30, %32
  %.0.i = phi i32 [ %35, %32 ], [ 0, %30 ]
  %.not.i24 = icmp sgt i64 %indvars.iv, %28
  %36 = icmp sle i64 %indvars.iv, %25
  %or.cond.i25 = or i1 %36, %.not.i24
  br i1 %or.cond.i25, label %_ZNK32pxrInternal_v0_24__pxrReserved__21pxr_double_conversion6Bignum11BigitOrZeroEi.exit27, label %37

37:                                               ; preds = %_ZNK32pxrInternal_v0_24__pxrReserved__21pxr_double_conversion6Bignum11BigitOrZeroEi.exit
  %38 = sub nsw i64 %indvars.iv.next, %25
  %39 = getelementptr inbounds [128 x i32], ptr %20, i64 0, i64 %38
  %40 = load i32, ptr %39, align 4
  br label %_ZNK32pxrInternal_v0_24__pxrReserved__21pxr_double_conversion6Bignum11BigitOrZeroEi.exit27

_ZNK32pxrInternal_v0_24__pxrReserved__21pxr_double_conversion6Bignum11BigitOrZeroEi.exit27: ; preds = %_ZNK32pxrInternal_v0_24__pxrReserved__21pxr_double_conversion6Bignum11BigitOrZeroEi.exit, %37
  %.0.i26 = phi i32 [ %40, %37 ], [ 0, %_ZNK32pxrInternal_v0_24__pxrReserved__21pxr_double_conversion6Bignum11BigitOrZeroEi.exit ]
  %41 = icmp ult i32 %.0.i, %.0.i26
  br i1 %41, label %.loopexit, label %42

42:                                               ; preds = %_ZNK32pxrInternal_v0_24__pxrReserved__21pxr_double_conversion6Bignum11BigitOrZeroEi.exit27
  %43 = icmp ugt i32 %.0.i, %.0.i26
  br i1 %43, label %.loopexit, label %29, !llvm.loop !34

.loopexit:                                        ; preds = %29, %42, %_ZNK32pxrInternal_v0_24__pxrReserved__21pxr_double_conversion6Bignum11BigitOrZeroEi.exit27, %16, %2
  %.0 = phi i32 [ -1, %2 ], [ 1, %16 ], [ 0, %29 ], [ 1, %42 ], [ -1, %_ZNK32pxrInternal_v0_24__pxrReserved__21pxr_double_conversion6Bignum11BigitOrZeroEi.exit27 ]
  ret i32 %.0
}